; Function Attrs: mustprogress nofree norecurse nosync nounwind memory(readwrite, inaccessiblemem: none) uwtable
define void @_ZN10OpenSubdiv6v3_6_03Vtr8internal10Refinement35populateVertexParentFromParentEdgesEPA4_KNS3_8ChildTagE(ptr nocapture noundef nonnull readonly align 8 dereferenceable(504) %0, ptr nocapture noundef readonly %1) local_unnamed_addr #10 align 2 {
  %3 = getelementptr inbounds nuw i8, ptr %0, i64 36
  %4 = load i8, ptr %3, align 4
  %5 = trunc i8 %4 to i1
  %6 = getelementptr inbounds nuw i8, ptr %0, i64 8
  %7 = load ptr, ptr %6, align 8
  %8 = getelementptr inbounds nuw i8, ptr %7, i64 4
  %9 = load i32, ptr %8, align 4
  %10 = icmp sgt i32 %9, 0
  br i1 %5, label %15, label %.preheader

.preheader:                                       ; preds = %2
  br i1 %10, label %.lr.ph, label %.loopexit

.lr.ph:                                           ; preds = %.preheader
  %11 = getelementptr inbounds nuw i8, ptr %0, i64 216
  %12 = getelementptr inbounds nuw i8, ptr %0, i64 432
  %13 = getelementptr inbounds nuw i8, ptr %0, i64 384
  %14 = getelementptr inbounds nuw i8, ptr %0, i64 312
  br label %28

15:                                               ; preds = %2
  br i1 %10, label %.lr.ph22, label %.loopexit

.lr.ph22:                                         ; preds = %15
  %16 = getelementptr inbounds nuw i8, ptr %0, i64 80
  %17 = load i32, ptr %16, align 8
  %18 = getelementptr inbounds nuw i8, ptr %0, i64 312
  %19 = sext i32 %17 to i64
  br label %20

20:                                               ; preds = %.lr.ph22, %20
  %indvars.iv25 = phi i64 [ %19, %.lr.ph22 ], [ %indvars.iv.next26, %20 ]
  %.01620 = phi i32 [ 0, %.lr.ph22 ], [ %23, %20 ]
  %21 = load ptr, ptr %18, align 8
  %22 = getelementptr inbounds i32, ptr %21, i64 %indvars.iv25
  store i32 %.01620, ptr %22, align 4
  %23 = add nuw nsw i32 %.01620, 1
  %indvars.iv.next26 = add nsw i64 %indvars.iv25, 1
  %24 = load ptr, ptr %6, align 8
  %25 = getelementptr inbounds nuw i8, ptr %24, i64 4
  %26 = load i32, ptr %25, align 4
  %27 = icmp slt i32 %23, %26
  br i1 %27, label %20, label %.loopexit, !llvm.loop !38

28:                                               ; preds = %.lr.ph, %45
  %29 = phi ptr [ %7, %.lr.ph ], [ %46, %45 ]
  %indvars.iv = phi i64 [ 0, %.lr.ph ], [ %indvars.iv.next, %45 ]
  %30 = load ptr, ptr %11, align 8
  %31 = getelementptr inbounds i32, ptr %30, i64 %indvars.iv
  %32 = load i32, ptr %31, align 4
  %.not17 = icmp eq i32 %32, -1
  br i1 %.not17, label %45, label %33

33:                                               ; preds = %28
  %34 = load ptr, ptr %12, align 8
  %35 = getelementptr inbounds %"struct.OpenSubdiv::v3_6_0::Vtr::internal::Refinement::SparseTag", ptr %34, i64 %indvars.iv
  %36 = load i8, ptr %35, align 1
  %37 = and i8 %36, 1
  %.not = icmp eq i8 %37, 0
  %.pre28 = sext i32 %32 to i64
  br i1 %.not, label %._crit_edge, label %38

38:                                               ; preds = %33
  %39 = load ptr, ptr %13, align 8
  %40 = getelementptr inbounds %"struct.OpenSubdiv::v3_6_0::Vtr::internal::Refinement::ChildTag", ptr %39, i64 %.pre28
  %41 = load i8, ptr %1, align 1
  store i8 %41, ptr %40, align 1
  br label %._crit_edge

._crit_edge:                                      ; preds = %33, %38
  %42 = load ptr, ptr %14, align 8
  %43 = getelementptr inbounds i32, ptr %42, i64 %.pre28
  %44 = trunc nuw nsw i64 %indvars.iv to i32
  store i32 %44, ptr %43, align 4
  %.pre = load ptr, ptr %6, align 8
  br label %45

45:                                               ; preds = %28, %._crit_edge
  %46 = phi ptr [ %29, %28 ], [ %.pre, %._crit_edge ]
  %indvars.iv.next = add nuw nsw i64 %indvars.iv, 1
  %47 = getelementptr inbounds nuw i8, ptr %46, i64 4
  %48 = load i32, ptr %47, align 4
  %49 = sext i32 %48 to i64
  %50 = icmp slt i64 %indvars.iv.next, %49
  br i1 %50, label %28, label %.loopexit, !llvm.loop !39

.loopexit:                                        ; preds = %45, %20, %.preheader, %15
  ret void
}